target datalayout = "e-m:e-p270:32:32-p271:32:32-p272:64:64-i64:64-i128:128-f80:128-n8:16:32:64-S128"
target triple = "x86_64-pc-linux-gnu"

%struct.Nwk_Grf_t_ = type { i32, i32, i32, ptr, ptr, i32, i32, ptr, ptr, [17 x i32], [17 x i32], ptr, ptr, ptr, i32, i32 }
%struct.Nwk_Edg_t_ = type { i32, i32, ptr }

; Function Attrs: nounwind uwtable
define void @Nwk_ManGraphHashEdge(ptr noundef %0, i32 noundef %1, i32 noundef %2) #0 {
  %4 = alloca ptr, align 8
  %5 = alloca i32, align 4
  %6 = alloca i32, align 4
  %7 = alloca ptr, align 8
  %8 = alloca i32, align 4
  %9 = alloca i32, align 4
  store ptr %0, ptr %4, align 8, !tbaa !7
  store i32 %1, ptr %5, align 4, !tbaa !3
  store i32 %2, ptr %6, align 4, !tbaa !3
  call void @llvm.lifetime.start.p0(i64 8, ptr %7) #11
  call void @llvm.lifetime.start.p0(i64 4, ptr %8) #11
  %10 = load i32, ptr %5, align 4, !tbaa !3
  %11 = load i32, ptr %6, align 4, !tbaa !3
  %12 = icmp eq i32 %10, %11
  br i1 %12, label %13, label %14

13:                                               ; preds = %3
  store i32 1, ptr %9, align 4
  br label %101

14:                                               ; preds = %3
  %15 = load i32, ptr %5, align 4, !tbaa !3
  %16 = load i32, ptr %6, align 4, !tbaa !3
  %17 = icmp sgt i32 %15, %16
  br i1 %17, label %18, label %22

18:                                               ; preds = %14
  %19 = load i32, ptr %5, align 4, !tbaa !3
  store i32 %19, ptr %8, align 4, !tbaa !3
  %20 = load i32, ptr %6, align 4, !tbaa !3
  store i32 %20, ptr %5, align 4, !tbaa !3
  %21 = load i32, ptr %8, align 4, !tbaa !3
  store i32 %21, ptr %6, align 4, !tbaa !3
  br label %22

22:                                               ; preds = %18, %14
  %23 = load ptr, ptr %4, align 8, !tbaa !7
  %24 = getelementptr inbounds nuw %struct.Nwk_Grf_t_, ptr %23, i32 0, i32 0
  %25 = load i32, ptr %24, align 8, !tbaa !34
  %26 = load i32, ptr %6, align 4, !tbaa !3
  %27 = icmp slt i32 %25, %26
  br i1 %27, label %28, label %32

28:                                               ; preds = %22
  %29 = load i32, ptr %6, align 4, !tbaa !3
  %30 = load ptr, ptr %4, align 8, !tbaa !7
  %31 = getelementptr inbounds nuw %struct.Nwk_Grf_t_, ptr %30, i32 0, i32 0
  store i32 %29, ptr %31, align 8, !tbaa !34
  br label %32

32:                                               ; preds = %28, %22
  %33 = load i32, ptr %5, align 4, !tbaa !3
  %34 = mul nsw i32 741457, %33
  %35 = load i32, ptr %6, align 4, !tbaa !3
  %36 = mul nsw i32 4256249, %35
  %37 = add nsw i32 %34, %36
  %38 = load ptr, ptr %4, align 8, !tbaa !7
  %39 = getelementptr inbounds nuw %struct.Nwk_Grf_t_, ptr %38, i32 0, i32 2
  %40 = load i32, ptr %39, align 8, !tbaa !18
  %41 = urem i32 %37, %40
  store i32 %41, ptr %8, align 4, !tbaa !3
  %42 = load ptr, ptr %4, align 8, !tbaa !7
  %43 = getelementptr inbounds nuw %struct.Nwk_Grf_t_, ptr %42, i32 0, i32 3
  %44 = load ptr, ptr %43, align 8, !tbaa !19
  %45 = load i32, ptr %8, align 4, !tbaa !3
  %46 = zext i32 %45 to i64
  %47 = getelementptr inbounds nuw ptr, ptr %44, i64 %46
  %48 = load ptr, ptr %47, align 8, !tbaa !39
  store ptr %48, ptr %7, align 8, !tbaa !39
  br label %49

49:                                               ; preds = %66, %32
  %50 = load ptr, ptr %7, align 8, !tbaa !39
  %51 = icmp ne ptr %50, null
  br i1 %51, label %52, label %70

52:                                               ; preds = %49
  %53 = load ptr, ptr %7, align 8, !tbaa !39
  %54 = getelementptr inbounds nuw %struct.Nwk_Edg_t_, ptr %53, i32 0, i32 0
  %55 = load i32, ptr %54, align 8, !tbaa !41
  %56 = load i32, ptr %5, align 4, !tbaa !3
  %57 = icmp eq i32 %55, %56
  br i1 %57, label %58, label %65

58:                                               ; preds = %52
  %59 = load ptr, ptr %7, align 8, !tbaa !39
  %60 = getelementptr inbounds nuw %struct.Nwk_Edg_t_, ptr %59, i32 0, i32 1
  %61 = load i32, ptr %60, align 4, !tbaa !43
  %62 = load i32, ptr %6, align 4, !tbaa !3
  %63 = icmp eq i32 %61, %62
  br i1 %63, label %64, label %65

64:                                               ; preds = %58
  store i32 1, ptr %9, align 4
  br label %101

65:                                               ; preds = %58, %52
  br label %66

66:                                               ; preds = %65
  %67 = load ptr, ptr %7, align 8, !tbaa !39
  %68 = getelementptr inbounds nuw %struct.Nwk_Edg_t_, ptr %67, i32 0, i32 2
  %69 = load ptr, ptr %68, align 8, !tbaa !44
  store ptr %69, ptr %7, align 8, !tbaa !39
  br label %49, !llvm.loop !45

70:                                               ; preds = %49
  %71 = load ptr, ptr %4, align 8, !tbaa !7
  %72 = getelementptr inbounds nuw %struct.Nwk_Grf_t_, ptr %71, i32 0, i32 4
  %73 = load ptr, ptr %72, align 8, !tbaa !20
  %74 = call ptr @Aig_MmFixedEntryFetch(ptr noundef %73)
  store ptr %74, ptr %7, align 8, !tbaa !39
  %75 = load i32, ptr %5, align 4, !tbaa !3
  %76 = load ptr, ptr %7, align 8, !tbaa !39
  %77 = getelementptr inbounds nuw %struct.Nwk_Edg_t_, ptr %76, i32 0, i32 0
  store i32 %75, ptr %77, align 8, !tbaa !41
  %78 = load i32, ptr %6, align 4, !tbaa !3
  %79 = load ptr, ptr %7, align 8, !tbaa !39
  %80 = getelementptr inbounds nuw %struct.Nwk_Edg_t_, ptr %79, i32 0, i32 1
  store i32 %78, ptr %80, align 4, !tbaa !43
  %81 = load ptr, ptr %4, align 8, !tbaa !7
  %82 = getelementptr inbounds nuw %struct.Nwk_Grf_t_, ptr %81, i32 0, i32 3
  %83 = load ptr, ptr %82, align 8, !tbaa !19
  %84 = load i32, ptr %8, align 4, !tbaa !3
  %85 = zext i32 %84 to i64
  %86 = getelementptr inbounds nuw ptr, ptr %83, i64 %85
  %87 = load ptr, ptr %86, align 8, !tbaa !39
  %88 = load ptr, ptr %7, align 8, !tbaa !39
  %89 = getelementptr inbounds nuw %struct.Nwk_Edg_t_, ptr %88, i32 0, i32 2
  store ptr %87, ptr %89, align 8, !tbaa !44
  %90 = load ptr, ptr %7, align 8, !tbaa !39
  %91 = load ptr, ptr %4, align 8, !tbaa !7
  %92 = getelementptr inbounds nuw %struct.Nwk_Grf_t_, ptr %91, i32 0, i32 3
  %93 = load ptr, ptr %92, align 8, !tbaa !19
  %94 = load i32, ptr %8, align 4, !tbaa !3
  %95 = zext i32 %94 to i64
  %96 = getelementptr inbounds nuw ptr, ptr %93, i64 %95
  store ptr %90, ptr %96, align 8, !tbaa !39
  %97 = load ptr, ptr %4, align 8, !tbaa !7
  %98 = getelementptr inbounds nuw %struct.Nwk_Grf_t_, ptr %97, i32 0, i32 5
  %99 = load i32, ptr %98, align 8, !tbaa !35
  %100 = add nsw i32 %99, 1
  store i32 %100, ptr %98, align 8, !tbaa !35
  store i32 0, ptr %9, align 4
  br label %101

101:                                              ; preds = %70, %64, %13
  call void @llvm.lifetime.end.p0(i64 4, ptr %8) #11
  call void @llvm.lifetime.end.p0(i64 8, ptr %7) #11
  %102 = load i32, ptr %9, align 4
  switch i32 %102, label %104 [
    i32 0, label %103
    i32 1, label %103
  ]

103:                                              ; preds = %101, %101
  ret void

104:                                              ; preds = %101
  unreachable
}