; Function Attrs: nounwind uwtable
define void @Nwk_ManGraphHashEdge(ptr noundef captures(none) %0, i32 noundef %1, i32 noundef %2) local_unnamed_addr #0 {
  %4 = icmp eq i32 %1, %2
  br i1 %4, label %.loopexit, label %5

5:                                                ; preds = %3
  %spec.select = tail call i32 @llvm.smin.i32(i32 %1, i32 %2)
  %spec.select37 = tail call i32 @llvm.smax.i32(i32 %1, i32 %2)
  %6 = load i32, ptr %0, align 8, !tbaa !30
  %7 = icmp slt i32 %6, %spec.select37
  br i1 %7, label %8, label %9

8:                                                ; preds = %5
  store i32 %spec.select37, ptr %0, align 8, !tbaa !30
  br label %9

9:                                                ; preds = %8, %5
  %10 = mul nsw i32 %spec.select, 741457
  %11 = mul nsw i32 %spec.select37, 4256249
  %12 = add nsw i32 %10, %11
  %13 = getelementptr inbounds nuw i8, ptr %0, i64 8
  %14 = load i32, ptr %13, align 8, !tbaa !18
  %15 = urem i32 %12, %14
  %16 = getelementptr inbounds nuw i8, ptr %0, i64 16
  %17 = load ptr, ptr %16, align 8, !tbaa !19
  %18 = zext i32 %15 to i64
  %19 = getelementptr inbounds nuw ptr, ptr %17, i64 %18
  %.038 = load ptr, ptr %19, align 8, !tbaa !35
  %.not39 = icmp eq ptr %.038, null
  br i1 %.not39, label %._crit_edge, label %.lr.ph

.lr.ph:                                           ; preds = %9, %26
  %.040 = phi ptr [ %.0, %26 ], [ %.038, %9 ]
  %20 = load i32, ptr %.040, align 8, !tbaa !37
  %21 = icmp eq i32 %20, %spec.select
  br i1 %21, label %22, label %26

22:                                               ; preds = %.lr.ph
  %23 = getelementptr inbounds nuw i8, ptr %.040, i64 4
  %24 = load i32, ptr %23, align 4, !tbaa !39
  %25 = icmp eq i32 %24, %spec.select37
  br i1 %25, label %.loopexit, label %26

26:                                               ; preds = %.lr.ph, %22
  %27 = getelementptr inbounds nuw i8, ptr %.040, i64 8
  %.0 = load ptr, ptr %27, align 8, !tbaa !35
  %.not = icmp eq ptr %.0, null
  br i1 %.not, label %._crit_edge, label %.lr.ph, !llvm.loop !40

._crit_edge:                                      ; preds = %26, %9
  %28 = getelementptr inbounds nuw i8, ptr %0, i64 24
  %29 = load ptr, ptr %28, align 8, !tbaa !20
  %30 = tail call ptr @Aig_MmFixedEntryFetch(ptr noundef %29) #20
  store i32 %spec.select, ptr %30, align 8, !tbaa !37
  %31 = getelementptr inbounds nuw i8, ptr %30, i64 4
  store i32 %spec.select37, ptr %31, align 4, !tbaa !39
  %32 = load ptr, ptr %16, align 8, !tbaa !19
  %33 = getelementptr inbounds nuw ptr, ptr %32, i64 %18
  %34 = load ptr, ptr %33, align 8, !tbaa !35
  %35 = getelementptr inbounds nuw i8, ptr %30, i64 8
  store ptr %34, ptr %35, align 8, !tbaa !41
  store ptr %30, ptr %33, align 8, !tbaa !35
  %36 = getelementptr inbounds nuw i8, ptr %0, i64 32
  %37 = load i32, ptr %36, align 8, !tbaa !31
  %38 = add nsw i32 %37, 1
  store i32 %38, ptr %36, align 8, !tbaa !31
  br label %.loopexit

.loopexit:                                        ; preds = %22, %3, %._crit_edge
  ret void
}